; Function Attrs: mustprogress uwtable
define dso_local void @_ZN4Json5Value5clearEv(ptr nocapture noundef nonnull readonly align 8 dereferenceable(32) %0) local_unnamed_addr #2 align 2 personality ptr @__gxx_personality_v0 {
  %2 = alloca %"class.std::__cxx11::basic_ostringstream", align 8
  %3 = alloca %"class.std::__cxx11::basic_string", align 8
  %4 = getelementptr inbounds i8, ptr %0, i64 8
  %5 = load i16, ptr %4, align 8
  %trunc5 = trunc i16 %5 to i8
  switch i8 %trunc5, label %6 [
    i8 0, label %16
    i8 6, label %16
    i8 7, label %16
  ]

6:                                                ; preds = %1
  call void @_ZNSt7__cxx1119basic_ostringstreamIcSt11char_traitsIcESaIcEEC1Ev(ptr noundef nonnull align 8 dereferenceable(112) %2)
  %7 = invoke noundef nonnull align 8 dereferenceable(8) ptr @_ZStlsISt11char_traitsIcEERSt13basic_ostreamIcT_ES5_PKc(ptr noundef nonnull align 8 dereferenceable(8) %2, ptr noundef nonnull @.str.65)
          to label %8 unwind label %11

8:                                                ; preds = %6
  invoke void @_ZNKSt7__cxx1119basic_ostringstreamIcSt11char_traitsIcESaIcEE3strEv(ptr dead_on_unwind nonnull writable sret(%"class.std::__cxx11::basic_string") align 8 %3, ptr noundef nonnull align 8 dereferenceable(112) %2)
          to label %9 unwind label %11

9:                                                ; preds = %8
  invoke void @_ZN4Json15throwLogicErrorERKNSt7__cxx1112basic_stringIcSt11char_traitsIcESaIcEEE(ptr noundef nonnull align 8 dereferenceable(32) %3) #43
          to label %10 unwind label %13

10:                                               ; preds = %9
  unreachable

11:                                               ; preds = %8, %6
  %12 = landingpad { ptr, i32 }
          cleanup
  br label %15

13:                                               ; preds = %9
  %14 = landingpad { ptr, i32 }
          cleanup
  call void @_ZNSt7__cxx1112basic_stringIcSt11char_traitsIcESaIcEED1Ev(ptr noundef nonnull align 8 dereferenceable(32) %3) #39
  br label %15

15:                                               ; preds = %13, %11
  %.pn = phi { ptr, i32 } [ %14, %13 ], [ %12, %11 ]
  call void @_ZNSt7__cxx1119basic_ostringstreamIcSt11char_traitsIcESaIcEED1Ev(ptr noundef nonnull align 8 dereferenceable(112) %2) #39
  resume { ptr, i32 } %.pn

16:                                               ; preds = %1, %1, %1
  %17 = and i16 %5, 254
  %switch = icmp eq i16 %17, 6
  br i1 %switch, label %18, label %29

18:                                               ; preds = %16
  %19 = load ptr, ptr %0, align 8
  %20 = getelementptr inbounds i8, ptr %19, i64 16
  %21 = load ptr, ptr %20, align 8
  invoke void @_ZNSt8_Rb_treeIN4Json5Value8CZStringESt4pairIKS2_S1_ESt10_Select1stIS5_ESt4lessIS2_ESaIS5_EE8_M_eraseEPSt13_Rb_tree_nodeIS5_E(ptr noundef nonnull align 8 dereferenceable(48) %19, ptr noundef %21)
          to label %_ZNSt3mapIN4Json5Value8CZStringES1_St4lessIS2_ESaISt4pairIKS2_S1_EEE5clearEv.exit unwind label %22

22:                                               ; preds = %18
  %23 = landingpad { ptr, i32 }
          catch ptr null
  %24 = extractvalue { ptr, i32 } %23, 0
  tail call void @__clang_call_terminate(ptr %24) #41
  unreachable

_ZNSt3mapIN4Json5Value8CZStringES1_St4lessIS2_ESaISt4pairIKS2_S1_EEE5clearEv.exit: ; preds = %18
  %25 = getelementptr inbounds i8, ptr %19, i64 8
  store ptr null, ptr %20, align 8
  %26 = getelementptr inbounds i8, ptr %19, i64 24
  store ptr %25, ptr %26, align 8
  %27 = getelementptr inbounds i8, ptr %19, i64 32
  store ptr %25, ptr %27, align 8
  %28 = getelementptr inbounds i8, ptr %19, i64 40
  store i64 0, ptr %28, align 8
  br label %29

29:                                               ; preds = %16, %_ZNSt3mapIN4Json5Value8CZStringES1_St4lessIS2_ESaISt4pairIKS2_S1_EEE5clearEv.exit
  ret void
}